target datalayout = "e-m:e-p270:32:32-p271:32:32-p272:64:64-i64:64-i128:128-f80:128-n8:16:32:64-S128"
target triple = "x86_64-pc-linux-gnu"

%struct.b2Vec2 = type { float, float }
%struct.b2Rot = type { float, float }
%struct.b2JointId = type { i32, i16, i16 }
%struct.b2JointSim = type { i32, i32, i32, i32, %struct.b2Vec2, %struct.b2Vec2, float, float, float, float, %union.anon }
%union.anon = type { %struct.b2PrismaticJoint }
%struct.b2PrismaticJoint = type { %struct.b2Vec2, %struct.b2Vec2, float, float, float, float, float, float, float, float, float, float, float, i32, i32, %struct.b2Vec2, %struct.b2Vec2, %struct.b2Vec2, %struct.b2Vec2, float, float, %struct.b2Softness, i8, i8, i8 }
%struct.b2Softness = type { float, float, float }
%struct.b2RevoluteJoint = type { %struct.b2Vec2, float, float, float, float, float, float, float, float, float, float, float, i32, i32, %struct.b2Vec2, %struct.b2Vec2, %struct.b2Vec2, float, float, %struct.b2Softness, i8, i8, i8 }
%struct.b2Transform = type { %struct.b2Vec2, %struct.b2Rot }

; Function Attrs: inlinehint nounwind uwtable
define internal float @b2UnwindAngle(float noundef %0) #5 {
  %2 = alloca float, align 4
  %3 = alloca float, align 4
  store float %0, ptr %3, align 4, !tbaa !13
  %4 = load float, ptr %3, align 4, !tbaa !13
  %5 = fcmp olt float %4, 0xC00921FB60000000
  br i1 %5, label %6, label %9

6:                                                ; preds = %1
  %7 = load float, ptr %3, align 4, !tbaa !13
  %8 = fadd float %7, 0x401921FB60000000
  store float %8, ptr %2, align 4
  br label %18

9:                                                ; preds = %1
  %10 = load float, ptr %3, align 4, !tbaa !13
  %11 = fcmp ogt float %10, 0x400921FB60000000
  br i1 %11, label %12, label %15

12:                                               ; preds = %9
  %13 = load float, ptr %3, align 4, !tbaa !13
  %14 = fsub float %13, 0x401921FB60000000
  store float %14, ptr %2, align 4
  br label %18

15:                                               ; preds = %9
  br label %16

16:                                               ; preds = %15
  %17 = load float, ptr %3, align 4, !tbaa !13
  store float %17, ptr %2, align 4
  br label %18

18:                                               ; preds = %16, %12, %6
  %19 = load float, ptr %2, align 4
  ret float %19
}

; Function Attrs: inlinehint nounwind uwtable
define internal float @b2RelativeAngle(<2 x float> %0, <2 x float> %1) #4 {
  %3 = alloca %struct.b2Rot, align 4
  %4 = alloca %struct.b2Rot, align 4
  %5 = alloca float, align 4
  %6 = alloca float, align 4
  store <2 x float> %0, ptr %3, align 4
  store <2 x float> %1, ptr %4, align 4
  call void @llvm.lifetime.start.p0(i64 4, ptr %5) #9
  %7 = getelementptr inbounds nuw %struct.b2Rot, ptr %3, i32 0, i32 1
  %8 = load float, ptr %7, align 4, !tbaa !25
  %9 = getelementptr inbounds nuw %struct.b2Rot, ptr %4, i32 0, i32 0
  %10 = load float, ptr %9, align 4, !tbaa !27
  %11 = fmul float %8, %10
  %12 = getelementptr inbounds nuw %struct.b2Rot, ptr %3, i32 0, i32 0
  %13 = load float, ptr %12, align 4, !tbaa !27
  %14 = getelementptr inbounds nuw %struct.b2Rot, ptr %4, i32 0, i32 1
  %15 = load float, ptr %14, align 4, !tbaa !25
  %16 = fmul float %13, %15
  %17 = fsub float %11, %16
  store float %17, ptr %5, align 4, !tbaa !13
  call void @llvm.lifetime.start.p0(i64 4, ptr %6) #9
  %18 = getelementptr inbounds nuw %struct.b2Rot, ptr %3, i32 0, i32 0
  %19 = load float, ptr %18, align 4, !tbaa !27
  %20 = getelementptr inbounds nuw %struct.b2Rot, ptr %4, i32 0, i32 0
  %21 = load float, ptr %20, align 4, !tbaa !27
  %22 = fmul float %19, %21
  %23 = getelementptr inbounds nuw %struct.b2Rot, ptr %3, i32 0, i32 1
  %24 = load float, ptr %23, align 4, !tbaa !25
  %25 = getelementptr inbounds nuw %struct.b2Rot, ptr %4, i32 0, i32 1
  %26 = load float, ptr %25, align 4, !tbaa !25
  %27 = fmul float %24, %26
  %28 = fadd float %22, %27
  store float %28, ptr %6, align 4, !tbaa !13
  %29 = load float, ptr %5, align 4, !tbaa !13
  %30 = load float, ptr %6, align 4, !tbaa !13
  %31 = call float @b2Atan2(float noundef %29, float noundef %30)
  call void @llvm.lifetime.end.p0(i64 4, ptr %6) #9
  call void @llvm.lifetime.end.p0(i64 4, ptr %5) #9
  ret float %31
}

; Function Attrs: nounwind uwtable
define float @b2RevoluteJoint_GetAngle(i64 %0) #3 {
  %2 = alloca %struct.b2JointId, align 4
  %3 = alloca ptr, align 8
  %4 = alloca ptr, align 8
  %5 = alloca %struct.b2Transform, align 4
  %6 = alloca %struct.b2Transform, align 4
  %7 = alloca float, align 4
  store i64 %0, ptr %2, align 4
  call void @llvm.lifetime.start.p0(i64 8, ptr %3) #9
  %8 = getelementptr inbounds nuw %struct.b2JointId, ptr %2, i32 0, i32 1
  %9 = load i16, ptr %8, align 4, !tbaa !15
  %10 = zext i16 %9 to i32
  %11 = call ptr @b2GetWorld(i32 noundef %10)
  store ptr %11, ptr %3, align 8, !tbaa !19
  call void @llvm.lifetime.start.p0(i64 8, ptr %4) #9
  %12 = load i64, ptr %2, align 4
  %13 = call ptr @b2GetJointSimCheckType(i64 %12, i32 noundef 5)
  store ptr %13, ptr %4, align 8, !tbaa !7
  call void @llvm.lifetime.start.p0(i64 16, ptr %5) #9
  %14 = load ptr, ptr %3, align 8, !tbaa !19
  %15 = load ptr, ptr %4, align 8, !tbaa !7
  %16 = getelementptr inbounds nuw %struct.b2JointSim, ptr %15, i32 0, i32 1
  %17 = load i32, ptr %16, align 4, !tbaa !21
  %18 = call { <2 x float>, <2 x float> } @b2GetBodyTransform(ptr noundef %14, i32 noundef %17)
  %19 = getelementptr inbounds nuw { <2 x float>, <2 x float> }, ptr %5, i32 0, i32 0
  %20 = extractvalue { <2 x float>, <2 x float> } %18, 0
  store <2 x float> %20, ptr %19, align 4
  %21 = getelementptr inbounds nuw { <2 x float>, <2 x float> }, ptr %5, i32 0, i32 1
  %22 = extractvalue { <2 x float>, <2 x float> } %18, 1
  store <2 x float> %22, ptr %21, align 4
  call void @llvm.lifetime.start.p0(i64 16, ptr %6) #9
  %23 = load ptr, ptr %3, align 8, !tbaa !19
  %24 = load ptr, ptr %4, align 8, !tbaa !7
  %25 = getelementptr inbounds nuw %struct.b2JointSim, ptr %24, i32 0, i32 2
  %26 = load i32, ptr %25, align 4, !tbaa !24
  %27 = call { <2 x float>, <2 x float> } @b2GetBodyTransform(ptr noundef %23, i32 noundef %26)
  %28 = getelementptr inbounds nuw { <2 x float>, <2 x float> }, ptr %6, i32 0, i32 0
  %29 = extractvalue { <2 x float>, <2 x float> } %27, 0
  store <2 x float> %29, ptr %28, align 4
  %30 = getelementptr inbounds nuw { <2 x float>, <2 x float> }, ptr %6, i32 0, i32 1
  %31 = extractvalue { <2 x float>, <2 x float> } %27, 1
  store <2 x float> %31, ptr %30, align 4
  call void @llvm.lifetime.start.p0(i64 4, ptr %7) #9
  %32 = getelementptr inbounds nuw %struct.b2Transform, ptr %6, i32 0, i32 1
  %33 = getelementptr inbounds nuw %struct.b2Transform, ptr %5, i32 0, i32 1
  %34 = load <2 x float>, ptr %32, align 4
  %35 = load <2 x float>, ptr %33, align 4
  %36 = call float @b2RelativeAngle(<2 x float> %34, <2 x float> %35)
  %37 = load ptr, ptr %4, align 8, !tbaa !7
  %38 = getelementptr inbounds nuw %struct.b2JointSim, ptr %37, i32 0, i32 10
  %39 = getelementptr inbounds nuw %struct.b2RevoluteJoint, ptr %38, i32 0, i32 9
  %40 = load float, ptr %39, align 4, !tbaa !12
  %41 = fsub float %36, %40
  store float %41, ptr %7, align 4, !tbaa !13
  %42 = load float, ptr %7, align 4, !tbaa !13
  %43 = call float @b2UnwindAngle(float noundef %42)
  store float %43, ptr %7, align 4, !tbaa !13
  %44 = load float, ptr %7, align 4, !tbaa !13
  call void @llvm.lifetime.end.p0(i64 4, ptr %7) #9
  call void @llvm.lifetime.end.p0(i64 16, ptr %6) #9
  call void @llvm.lifetime.end.p0(i64 16, ptr %5) #9
  call void @llvm.lifetime.end.p0(i64 8, ptr %4) #9
  call void @llvm.lifetime.end.p0(i64 8, ptr %3) #9
  ret float %44
}