; Function Attrs: nounwind uwtable
define float @b2RevoluteJoint_GetAngle(i64 %0) local_unnamed_addr #3 {
  %.sroa.2.0.extract.shift = lshr i64 %0, 32
  %2 = trunc nuw i64 %.sroa.2.0.extract.shift to i32
  %3 = and i32 %2, 65535
  %4 = tail call ptr @b2GetWorld(i32 noundef %3) #10
  %5 = tail call ptr @b2GetJointSimCheckType(i64 %0, i32 noundef 5) #10
  %6 = getelementptr inbounds nuw i8, ptr %5, i64 4
  %7 = load i32, ptr %6, align 4, !tbaa !8
  %8 = tail call { <2 x float>, <2 x float> } @b2GetBodyTransform(ptr noundef %4, i32 noundef %7) #10
  %9 = extractvalue { <2 x float>, <2 x float> } %8, 1
  %10 = getelementptr inbounds nuw i8, ptr %5, i64 8
  %11 = load i32, ptr %10, align 4, !tbaa !13
  %12 = tail call { <2 x float>, <2 x float> } @b2GetBodyTransform(ptr noundef %4, i32 noundef %11) #10
  %13 = extractvalue { <2 x float>, <2 x float> } %12, 1
  %.sroa.06.4.vec.extract.i = extractelement <2 x float> %13, i64 1
  %.sroa.0.0.vec.extract.i = extractelement <2 x float> %9, i64 0
  %14 = fmul float %.sroa.0.0.vec.extract.i, %.sroa.06.4.vec.extract.i
  %.sroa.06.0.vec.extract.i = extractelement <2 x float> %13, i64 0
  %.sroa.0.4.vec.extract.i = extractelement <2 x float> %9, i64 1
  %15 = fmul float %.sroa.0.4.vec.extract.i, %.sroa.06.0.vec.extract.i
  %16 = fsub float %14, %15
  %17 = fmul <2 x float> %9, %13
  %18 = extractelement <2 x float> %17, i64 0
  %19 = fmul float %.sroa.0.4.vec.extract.i, %.sroa.06.4.vec.extract.i
  %20 = fadd float %18, %19
  %21 = tail call float @b2Atan2(float noundef %16, float noundef %20) #10
  %22 = getelementptr inbounds nuw i8, ptr %5, i64 88
  %23 = load float, ptr %22, align 4, !tbaa !3
  %24 = fsub float %21, %23
  %25 = fcmp olt float %24, 0xC00921FB60000000
  br i1 %25, label %26, label %28

26:                                               ; preds = %1
  %27 = fadd float %24, 0x401921FB60000000
  br label %b2UnwindAngle.exit

28:                                               ; preds = %1
  %29 = fcmp ogt float %24, 0x400921FB60000000
  br i1 %29, label %30, label %b2UnwindAngle.exit

30:                                               ; preds = %28
  %31 = fadd float %24, 0xC01921FB60000000
  br label %b2UnwindAngle.exit

b2UnwindAngle.exit:                               ; preds = %26, %28, %30
  %.0.i = phi float [ %27, %26 ], [ %31, %30 ], [ %24, %28 ]
  ret float %.0.i
}